; Function Attrs: mustprogress nounwind uwtable
define internal fastcc noundef zeroext i1 @_ZN5clang19RecursiveASTVisitorIN12_GLOBAL__N_120FindSuperCallVisitorEE25TraverseConstantArrayTypeEPNS_17ConstantArrayTypeE(ptr noundef nonnull align 1 dereferenceable(1) %0, ptr nocapture noundef readonly %1) unnamed_addr #0 align 2 {
  %3 = getelementptr inbounds nuw i8, ptr %1, i64 32
  %.sroa.0.0.copyload.i = load i64, ptr %3, align 16
  %4 = tail call fastcc noundef zeroext i1 @_ZN5clang19RecursiveASTVisitorIN12_GLOBAL__N_120FindSuperCallVisitorEE12TraverseTypeENS_8QualTypeE(ptr noundef nonnull align 1 dereferenceable(1) %0, i64 %.sroa.0.0.copyload.i)
  br i1 %4, label %5, label %14

5:                                                ; preds = %2
  %6 = getelementptr inbounds nuw i8, ptr %1, i64 16
  %7 = load i32, ptr %6, align 16
  %8 = and i32 %7, 33554432
  %.not.i = icmp eq i32 %8, 0
  br i1 %.not.i, label %_ZNK5clang17ConstantArrayType11getSizeExprEv.exit.thread, label %_ZNK5clang17ConstantArrayType11getSizeExprEv.exit

_ZNK5clang17ConstantArrayType11getSizeExprEv.exit: ; preds = %5
  %9 = getelementptr inbounds nuw i8, ptr %1, i64 40
  %10 = load ptr, ptr %9, align 8
  %11 = getelementptr inbounds nuw i8, ptr %10, i64 16
  %12 = load ptr, ptr %11, align 8
  %.not = icmp eq ptr %12, null
  br i1 %.not, label %_ZNK5clang17ConstantArrayType11getSizeExprEv.exit.thread, label %_ZNK5clang17ConstantArrayType11getSizeExprEv.exit8

_ZNK5clang17ConstantArrayType11getSizeExprEv.exit8: ; preds = %_ZNK5clang17ConstantArrayType11getSizeExprEv.exit
  %13 = tail call fastcc noundef zeroext i1 @_ZN5clang19RecursiveASTVisitorIN12_GLOBAL__N_120FindSuperCallVisitorEE12TraverseStmtEPNS_4StmtEPN4llvm15SmallVectorImplINS6_14PointerIntPairIS5_Lj1EbNS6_21PointerLikeTypeTraitsIS5_EENS6_18PointerIntPairInfoIS5_Lj1ESA_EEEEEE(ptr noundef nonnull align 1 dereferenceable(1) %0, ptr noundef nonnull %12, ptr noundef null)
  br i1 %13, label %_ZNK5clang17ConstantArrayType11getSizeExprEv.exit.thread, label %14

_ZNK5clang17ConstantArrayType11getSizeExprEv.exit.thread: ; preds = %5, %_ZNK5clang17ConstantArrayType11getSizeExprEv.exit8, %_ZNK5clang17ConstantArrayType11getSizeExprEv.exit
  br label %14

14:                                               ; preds = %_ZNK5clang17ConstantArrayType11getSizeExprEv.exit8, %2, %_ZNK5clang17ConstantArrayType11getSizeExprEv.exit.thread
  %.0 = phi i1 [ true, %_ZNK5clang17ConstantArrayType11getSizeExprEv.exit.thread ], [ false, %2 ], [ false, %_ZNK5clang17ConstantArrayType11getSizeExprEv.exit8 ]
  ret i1 %.0
}